target datalayout = "e-m:e-p270:32:32-p271:32:32-p272:64:64-i64:64-i128:128-f80:128-n8:16:32:64-S128"
target triple = "x86_64-pc-linux-gnu"

%struct._expr = type { i32, %union.anon.37, i32, i32, i32, i32 }
%union.anon.37 = type { %struct.anon.40 }
%struct.anon.40 = type { ptr, i32, ptr }
%struct.anon.47 = type { ptr, ptr }

@PyExc_ValueError = external global ptr, align 8
@.str.38 = private unnamed_addr constant [36 x i8] c"field 'elt' is required for SetComp\00", align 1

; Function Attrs: nounwind uwtable
define hidden ptr @_PyAST_SetComp(ptr noundef %0, ptr noundef %1, i32 noundef %2, i32 noundef %3, i32 noundef %4, i32 noundef %5, ptr noundef %6) #0 {
  %8 = alloca ptr, align 8
  %9 = alloca ptr, align 8
  %10 = alloca ptr, align 8
  %11 = alloca i32, align 4
  %12 = alloca i32, align 4
  %13 = alloca i32, align 4
  %14 = alloca i32, align 4
  %15 = alloca ptr, align 8
  %16 = alloca ptr, align 8
  %17 = alloca i32, align 4
  store ptr %0, ptr %9, align 8, !tbaa !34
  store ptr %1, ptr %10, align 8, !tbaa !26
  store i32 %2, ptr %11, align 4, !tbaa !38
  store i32 %3, ptr %12, align 4, !tbaa !38
  store i32 %4, ptr %13, align 4, !tbaa !38
  store i32 %5, ptr %14, align 4, !tbaa !38
  store ptr %6, ptr %15, align 8, !tbaa !24
  call void @llvm.lifetime.start.p0(i64 8, ptr %16) #8
  %18 = load ptr, ptr %9, align 8, !tbaa !34
  %19 = icmp ne ptr %18, null
  br i1 %19, label %22, label %20

20:                                               ; preds = %7
  %21 = load ptr, ptr @PyExc_ValueError, align 8, !tbaa !13
  call void @PyErr_SetString(ptr noundef %21, ptr noundef @.str.38)
  store ptr null, ptr %8, align 8
  store i32 1, ptr %17, align 4
  br label %52

22:                                               ; preds = %7
  %23 = load ptr, ptr %15, align 8, !tbaa !24
  %24 = call ptr @_PyArena_Malloc(ptr noundef %23, i64 noundef 48)
  store ptr %24, ptr %16, align 8, !tbaa !34
  %25 = load ptr, ptr %16, align 8, !tbaa !34
  %26 = icmp ne ptr %25, null
  br i1 %26, label %28, label %27

27:                                               ; preds = %22
  store ptr null, ptr %8, align 8
  store i32 1, ptr %17, align 4
  br label %52

28:                                               ; preds = %22
  %29 = load ptr, ptr %16, align 8, !tbaa !34
  %30 = getelementptr inbounds nuw %struct._expr, ptr %29, i32 0, i32 0
  store i32 10, ptr %30, align 8, !tbaa !47
  %31 = load ptr, ptr %9, align 8, !tbaa !34
  %32 = load ptr, ptr %16, align 8, !tbaa !34
  %33 = getelementptr inbounds nuw %struct._expr, ptr %32, i32 0, i32 1
  %34 = getelementptr inbounds nuw %struct.anon.47, ptr %33, i32 0, i32 0
  store ptr %31, ptr %34, align 8, !tbaa !21
  %35 = load ptr, ptr %10, align 8, !tbaa !26
  %36 = load ptr, ptr %16, align 8, !tbaa !34
  %37 = getelementptr inbounds nuw %struct._expr, ptr %36, i32 0, i32 1
  %38 = getelementptr inbounds nuw %struct.anon.47, ptr %37, i32 0, i32 1
  store ptr %35, ptr %38, align 8, !tbaa !21
  %39 = load i32, ptr %11, align 4, !tbaa !38
  %40 = load ptr, ptr %16, align 8, !tbaa !34
  %41 = getelementptr inbounds nuw %struct._expr, ptr %40, i32 0, i32 2
  store i32 %39, ptr %41, align 8, !tbaa !49
  %42 = load i32, ptr %12, align 4, !tbaa !38
  %43 = load ptr, ptr %16, align 8, !tbaa !34
  %44 = getelementptr inbounds nuw %struct._expr, ptr %43, i32 0, i32 3
  store i32 %42, ptr %44, align 4, !tbaa !50
  %45 = load i32, ptr %13, align 4, !tbaa !38
  %46 = load ptr, ptr %16, align 8, !tbaa !34
  %47 = getelementptr inbounds nuw %struct._expr, ptr %46, i32 0, i32 4
  store i32 %45, ptr %47, align 8, !tbaa !51
  %48 = load i32, ptr %14, align 4, !tbaa !38
  %49 = load ptr, ptr %16, align 8, !tbaa !34
  %50 = getelementptr inbounds nuw %struct._expr, ptr %49, i32 0, i32 5
  store i32 %48, ptr %50, align 4, !tbaa !52
  %51 = load ptr, ptr %16, align 8, !tbaa !34
  store ptr %51, ptr %8, align 8
  store i32 1, ptr %17, align 4
  br label %52

52:                                               ; preds = %28, %27, %20
  call void @llvm.lifetime.end.p0(i64 8, ptr %16) #8
  %53 = load ptr, ptr %8, align 8
  ret ptr %53
}